; Function Attrs: nounwind uwtable
define internal range(i32 -1, 1) i32 @rm_read_seek(ptr noundef %0, i32 noundef %1, i64 noundef %2, i32 noundef %3) #0 {
  %5 = getelementptr inbounds nuw i8, ptr %0, i64 24
  %6 = load ptr, ptr %5, align 8, !tbaa !71
  %7 = tail call i32 @ff_seek_frame_binary(ptr noundef %0, i32 noundef %1, i64 noundef %2, i32 noundef %3) #12
  %8 = icmp slt i32 %7, 0
  br i1 %8, label %11, label %9

9:                                                ; preds = %4
  %10 = getelementptr inbounds nuw i8, ptr %6, i64 20
  store i32 0, ptr %10, align 4, !tbaa !90
  br label %11

11:                                               ; preds = %4, %9
  %.0 = phi i32 [ 0, %9 ], [ -1, %4 ]
  ret i32 %.0
}